; Function Attrs: nounwind uwtable
define noalias noundef ptr @Unm_ManFree(ptr noundef captures(none) %0) local_unnamed_addr #0 {
  %2 = getelementptr inbounds nuw i8, ptr %0, i64 8
  %3 = load ptr, ptr %2, align 8, !tbaa !36
  store ptr null, ptr %2, align 8, !tbaa !36
  tail call void @Gia_ManHashStop(ptr noundef %3) #19
  %4 = getelementptr inbounds nuw i8, ptr %3, i64 160
  %5 = load ptr, ptr %4, align 8, !tbaa !52
  %6 = icmp eq ptr %5, null
  br i1 %6, label %Vec_IntFreeP.exit, label %7

7:                                                ; preds = %1
  %8 = getelementptr inbounds nuw i8, ptr %5, i64 8
  %9 = load ptr, ptr %8, align 8, !tbaa !43
  %.not.i = icmp eq ptr %9, null
  br i1 %.not.i, label %12, label %.thread.i

.thread.i:                                        ; preds = %7
  tail call void @free(ptr noundef nonnull %9) #19
  %10 = load ptr, ptr %4, align 8, !tbaa !52
  %11 = getelementptr inbounds nuw i8, ptr %10, i64 8
  store ptr null, ptr %11, align 8, !tbaa !43
  br label %12

12:                                               ; preds = %.thread.i, %7
  %13 = phi ptr [ %10, %.thread.i ], [ %5, %7 ]
  tail call void @free(ptr noundef nonnull %13) #19
  store ptr null, ptr %4, align 8, !tbaa !52
  br label %Vec_IntFreeP.exit

Vec_IntFreeP.exit:                                ; preds = %1, %12
  %14 = load ptr, ptr %0, align 8, !tbaa !35
  %15 = getelementptr i8, ptr %14, i64 16
  %.val = load i32, ptr %15, align 8, !tbaa !53
  tail call void @Gia_ManSetRegNum(ptr noundef nonnull %3, i32 noundef %.val) #19
  %16 = getelementptr inbounds nuw i8, ptr %0, i64 48
  %17 = load ptr, ptr %16, align 8, !tbaa !54
  %18 = icmp eq ptr %17, null
  br i1 %18, label %Vec_WrdFreeP.exit, label %19

19:                                               ; preds = %Vec_IntFreeP.exit
  %20 = getelementptr inbounds nuw i8, ptr %17, i64 8
  %21 = load ptr, ptr %20, align 8, !tbaa !55
  %.not.i15 = icmp eq ptr %21, null
  br i1 %.not.i15, label %24, label %.thread.i16

.thread.i16:                                      ; preds = %19
  tail call void @free(ptr noundef nonnull %21) #19
  %22 = load ptr, ptr %16, align 8, !tbaa !54
  %23 = getelementptr inbounds nuw i8, ptr %22, i64 8
  store ptr null, ptr %23, align 8, !tbaa !55
  br label %24

24:                                               ; preds = %.thread.i16, %19
  %25 = phi ptr [ %22, %.thread.i16 ], [ %17, %19 ]
  tail call void @free(ptr noundef nonnull %25) #19
  store ptr null, ptr %16, align 8, !tbaa !54
  br label %Vec_WrdFreeP.exit

Vec_WrdFreeP.exit:                                ; preds = %Vec_IntFreeP.exit, %24
  %26 = getelementptr inbounds nuw i8, ptr %0, i64 56
  %27 = load ptr, ptr %26, align 8, !tbaa !52
  %28 = icmp eq ptr %27, null
  br i1 %28, label %Vec_IntFreeP.exit19, label %29

29:                                               ; preds = %Vec_WrdFreeP.exit
  %30 = getelementptr inbounds nuw i8, ptr %27, i64 8
  %31 = load ptr, ptr %30, align 8, !tbaa !43
  %.not.i17 = icmp eq ptr %31, null
  br i1 %.not.i17, label %34, label %.thread.i18

.thread.i18:                                      ; preds = %29
  tail call void @free(ptr noundef nonnull %31) #19
  %32 = load ptr, ptr %26, align 8, !tbaa !52
  %33 = getelementptr inbounds nuw i8, ptr %32, i64 8
  store ptr null, ptr %33, align 8, !tbaa !43
  br label %34

34:                                               ; preds = %.thread.i18, %29
  %35 = phi ptr [ %32, %.thread.i18 ], [ %27, %29 ]
  tail call void @free(ptr noundef nonnull %35) #19
  store ptr null, ptr %26, align 8, !tbaa !52
  br label %Vec_IntFreeP.exit19

Vec_IntFreeP.exit19:                              ; preds = %Vec_WrdFreeP.exit, %34
  %36 = getelementptr inbounds nuw i8, ptr %0, i64 32
  %37 = load ptr, ptr %36, align 8, !tbaa !52
  %38 = icmp eq ptr %37, null
  br i1 %38, label %Vec_IntFreeP.exit22, label %39

39:                                               ; preds = %Vec_IntFreeP.exit19
  %40 = getelementptr inbounds nuw i8, ptr %37, i64 8
  %41 = load ptr, ptr %40, align 8, !tbaa !43
  %.not.i20 = icmp eq ptr %41, null
  br i1 %.not.i20, label %44, label %.thread.i21

.thread.i21:                                      ; preds = %39
  tail call void @free(ptr noundef nonnull %41) #19
  %42 = load ptr, ptr %36, align 8, !tbaa !52
  %43 = getelementptr inbounds nuw i8, ptr %42, i64 8
  store ptr null, ptr %43, align 8, !tbaa !43
  br label %44

44:                                               ; preds = %.thread.i21, %39
  %45 = phi ptr [ %42, %.thread.i21 ], [ %37, %39 ]
  tail call void @free(ptr noundef nonnull %45) #19
  store ptr null, ptr %36, align 8, !tbaa !52
  br label %Vec_IntFreeP.exit22

Vec_IntFreeP.exit22:                              ; preds = %Vec_IntFreeP.exit19, %44
  %46 = getelementptr inbounds nuw i8, ptr %0, i64 40
  %47 = load ptr, ptr %46, align 8, !tbaa !52
  %48 = icmp eq ptr %47, null
  br i1 %48, label %Vec_IntFreeP.exit25, label %49

49:                                               ; preds = %Vec_IntFreeP.exit22
  %50 = getelementptr inbounds nuw i8, ptr %47, i64 8
  %51 = load ptr, ptr %50, align 8, !tbaa !43
  %.not.i23 = icmp eq ptr %51, null
  br i1 %.not.i23, label %54, label %.thread.i24

.thread.i24:                                      ; preds = %49
  tail call void @free(ptr noundef nonnull %51) #19
  %52 = load ptr, ptr %46, align 8, !tbaa !52
  %53 = getelementptr inbounds nuw i8, ptr %52, i64 8
  store ptr null, ptr %53, align 8, !tbaa !43
  br label %54

54:                                               ; preds = %.thread.i24, %49
  %55 = phi ptr [ %52, %.thread.i24 ], [ %47, %49 ]
  tail call void @free(ptr noundef nonnull %55) #19
  store ptr null, ptr %46, align 8, !tbaa !52
  br label %Vec_IntFreeP.exit25

Vec_IntFreeP.exit25:                              ; preds = %Vec_IntFreeP.exit22, %54
  %56 = getelementptr inbounds nuw i8, ptr %0, i64 16
  %57 = load ptr, ptr %56, align 8, !tbaa !50
  %58 = getelementptr inbounds nuw i8, ptr %57, i64 8
  %59 = load ptr, ptr %58, align 8, !tbaa !47
  %60 = getelementptr inbounds nuw i8, ptr %59, i64 8
  %61 = load ptr, ptr %60, align 8, !tbaa !43
  %.not.i.i = icmp eq ptr %61, null
  br i1 %.not.i.i, label %Vec_IntFree.exit.i, label %62

62:                                               ; preds = %Vec_IntFreeP.exit25
  tail call void @free(ptr noundef nonnull %61) #19
  br label %Vec_IntFree.exit.i

Vec_IntFree.exit.i:                               ; preds = %62, %Vec_IntFreeP.exit25
  tail call void @free(ptr noundef nonnull %59) #19
  %63 = load ptr, ptr %57, align 8, !tbaa !45
  %64 = getelementptr inbounds nuw i8, ptr %63, i64 8
  %65 = load ptr, ptr %64, align 8, !tbaa !43
  %.not.i4.i = icmp eq ptr %65, null
  br i1 %.not.i4.i, label %Hash_IntManStop.exit, label %66

66:                                               ; preds = %Vec_IntFree.exit.i
  tail call void @free(ptr noundef nonnull %65) #19
  br label %Hash_IntManStop.exit

Hash_IntManStop.exit:                             ; preds = %Vec_IntFree.exit.i, %66
  tail call void @free(ptr noundef nonnull %63) #19
  tail call void @free(ptr noundef nonnull %57) #19
  tail call void @free(ptr noundef nonnull %0) #19
  tail call void @Gia_ManStop(ptr noundef nonnull %3) #19
  ret ptr null
}